target datalayout = "e-m:e-p270:32:32-p271:32:32-p272:64:64-i64:64-i128:128-f80:128-n8:16:32:64-S128"
target triple = "x86_64-pc-linux-gnu"

%"class.cvc5::internal::SubtypeElimConverterCallback" = type { %"class.cvc5::internal::ProofNodeConverterCallback", %"class.cvc5::internal::EnvObj", %"class.cvc5::internal::SubtypeElimNodeConverter", ptr }
%"class.cvc5::internal::ProofNodeConverterCallback" = type { ptr }
%"class.cvc5::internal::EnvObj" = type { ptr, ptr }
%"class.cvc5::internal::SubtypeElimNodeConverter" = type { %"class.cvc5::internal::NodeConverter.base", [7 x i8] }
%"class.cvc5::internal::NodeConverter.base" = type <{ ptr, ptr, %"class.std::unordered_map", %"class.std::unordered_map", %"class.std::unordered_map.2", %"class.std::unordered_map.2", i8 }>
%"class.std::unordered_map" = type { %"class.std::_Hashtable" }
%"class.std::_Hashtable" = type { ptr, i64, %"struct.std::__detail::_Hash_node_base", i64, %"struct.std::__detail::_Prime_rehash_policy", ptr }
%"struct.std::__detail::_Hash_node_base" = type { ptr }
%"struct.std::__detail::_Prime_rehash_policy" = type { float, i64 }
%"class.std::unordered_map.2" = type { %"class.std::_Hashtable.3" }
%"class.std::_Hashtable.3" = type { ptr, i64, %"struct.std::__detail::_Hash_node_base", i64, %"struct.std::__detail::_Prime_rehash_policy", ptr }

; Function Attrs: mustprogress nounwind uwtable
define linkonce_odr hidden void @_ZN4cvc58internal26ProofNodeConverterCallbackD2Ev(ptr noundef nonnull align 8 dereferenceable(8) %0) unnamed_addr #5 comdat align 2 {
  %2 = alloca ptr, align 8
  store ptr %0, ptr %2, align 8, !tbaa !32
  ret void
}

; Function Attrs: mustprogress nounwind uwtable
define linkonce_odr hidden void @_ZN4cvc58internal6EnvObjD2Ev(ptr noundef nonnull align 8 dereferenceable(16) %0) unnamed_addr #5 comdat align 2 {
  %2 = alloca ptr, align 8
  store ptr %0, ptr %2, align 8, !tbaa !36
  ret void
}

; Function Attrs: mustprogress nounwind uwtable
define linkonce_odr hidden void @_ZN4cvc58internal26ProofNodeConverterCallbackC2Ev(ptr noundef nonnull align 8 dereferenceable(8) %0) unnamed_addr #5 comdat align 2 {
  %2 = alloca ptr, align 8
  store ptr %0, ptr %2, align 8, !tbaa !32
  %3 = load ptr, ptr %2, align 8
  store ptr getelementptr inbounds inrange(-16, 24) ({ [5 x ptr] }, ptr @_ZTVN4cvc58internal26ProofNodeConverterCallbackE, i32 0, i32 0, i32 2), ptr %3, align 8, !tbaa !10
  ret void
}

; Function Attrs: mustprogress uwtable
define hidden void @_ZN4cvc58internal28SubtypeElimConverterCallbackC2ERNS0_3EnvE(ptr noundef nonnull align 8 dereferenceable(280) %0, ptr noundef nonnull align 8 dereferenceable(696) %1) unnamed_addr #4 align 2 personality ptr @__gxx_personality_v0 {
  %3 = alloca ptr, align 8
  %4 = alloca ptr, align 8
  %5 = alloca ptr, align 8
  %6 = alloca i32, align 4
  store ptr %0, ptr %3, align 8, !tbaa !3
  store ptr %1, ptr %4, align 8, !tbaa !8
  %7 = load ptr, ptr %3, align 8
  call void @_ZN4cvc58internal26ProofNodeConverterCallbackC2Ev(ptr noundef nonnull align 8 dereferenceable(8) %7)
  %8 = getelementptr inbounds i8, ptr %7, i64 8
  %9 = load ptr, ptr %4, align 8, !tbaa !8
  invoke void @_ZN4cvc58internal6EnvObjC2ERNS0_3EnvE(ptr noundef nonnull align 8 dereferenceable(16) %8, ptr noundef nonnull align 8 dereferenceable(696) %9)
          to label %10 unwind label %25

10:                                               ; preds = %2
  store ptr getelementptr inbounds inrange(-16, 24) ({ [5 x ptr], [4 x ptr] }, ptr @_ZTVN4cvc58internal28SubtypeElimConverterCallbackE, i32 0, i32 0, i32 2), ptr %7, align 8, !tbaa !10
  %11 = getelementptr inbounds i8, ptr %7, i64 8
  store ptr getelementptr inbounds inrange(-16, 16) ({ [5 x ptr], [4 x ptr] }, ptr @_ZTVN4cvc58internal28SubtypeElimConverterCallbackE, i32 0, i32 1, i32 2), ptr %11, align 8, !tbaa !10
  %12 = getelementptr inbounds nuw %"class.cvc5::internal::SubtypeElimConverterCallback", ptr %7, i32 0, i32 2
  %13 = getelementptr inbounds i8, ptr %7, i64 8
  %14 = invoke noundef ptr @_ZNK4cvc58internal6EnvObj11nodeManagerEv(ptr noundef nonnull align 8 dereferenceable(16) %13)
          to label %15 unwind label %29

15:                                               ; preds = %10
  invoke void @_ZN4cvc58internal24SubtypeElimNodeConverterC1EPNS0_11NodeManagerE(ptr noundef nonnull align 8 dereferenceable(241) %12, ptr noundef %14)
          to label %16 unwind label %29

16:                                               ; preds = %15
  %17 = getelementptr inbounds i8, ptr %7, i64 8
  %18 = getelementptr inbounds nuw %"class.cvc5::internal::EnvObj", ptr %17, i32 0, i32 1
  %19 = load ptr, ptr %18, align 8, !tbaa !12
  %20 = invoke noundef ptr @_ZN4cvc58internal3Env19getProofNodeManagerEv(ptr noundef nonnull align 8 dereferenceable(696) %19)
          to label %21 unwind label %33

21:                                               ; preds = %16
  %22 = invoke noundef ptr @_ZNK4cvc58internal16ProofNodeManager10getCheckerEv(ptr noundef nonnull align 8 dereferenceable(32) %20)
          to label %23 unwind label %33

23:                                               ; preds = %21
  %24 = getelementptr inbounds nuw %"class.cvc5::internal::SubtypeElimConverterCallback", ptr %7, i32 0, i32 3
  store ptr %22, ptr %24, align 8, !tbaa !14
  ret void

25:                                               ; preds = %2
  %26 = landingpad { ptr, i32 }
          cleanup
  %27 = extractvalue { ptr, i32 } %26, 0
  store ptr %27, ptr %5, align 8
  %28 = extractvalue { ptr, i32 } %26, 1
  store i32 %28, ptr %6, align 4
  br label %39

29:                                               ; preds = %15, %10
  %30 = landingpad { ptr, i32 }
          cleanup
  %31 = extractvalue { ptr, i32 } %30, 0
  store ptr %31, ptr %5, align 8
  %32 = extractvalue { ptr, i32 } %30, 1
  store i32 %32, ptr %6, align 4
  br label %37

33:                                               ; preds = %21, %16
  %34 = landingpad { ptr, i32 }
          cleanup
  %35 = extractvalue { ptr, i32 } %34, 0
  store ptr %35, ptr %5, align 8
  %36 = extractvalue { ptr, i32 } %34, 1
  store i32 %36, ptr %6, align 4
  call void @_ZN4cvc58internal13NodeConverterD2Ev(ptr noundef nonnull align 8 dereferenceable(241) %12) #3
  br label %37

37:                                               ; preds = %33, %29
  %38 = getelementptr inbounds i8, ptr %7, i64 8
  call void @_ZN4cvc58internal6EnvObjD2Ev(ptr noundef nonnull align 8 dereferenceable(16) %38) #3
  br label %39

39:                                               ; preds = %37, %25
  call void @_ZN4cvc58internal26ProofNodeConverterCallbackD2Ev(ptr noundef nonnull align 8 dereferenceable(8) %7) #3
  br label %40

40:                                               ; preds = %39
  %41 = load ptr, ptr %5, align 8
  %42 = load i32, ptr %6, align 4
  %43 = insertvalue { ptr, i32 } poison, ptr %41, 0
  %44 = insertvalue { ptr, i32 } %43, i32 %42, 1
  resume { ptr, i32 } %44
}