; Function Attrs: mustprogress uwtable
define hidden void @_ZN4cvc58internal28SubtypeElimConverterCallbackC2ERNS0_3EnvE(ptr noundef nonnull align 8 dereferenceable(280) initializes((0, 8)) %0, ptr noundef nonnull align 8 dereferenceable(696) %1) unnamed_addr #3 align 2 personality ptr @__gxx_personality_v0 {
  store ptr getelementptr inbounds nuw inrange(-16, 24) (i8, ptr @_ZTVN4cvc58internal26ProofNodeConverterCallbackE, i64 16), ptr %0, align 8, !tbaa !3
  %3 = getelementptr inbounds nuw i8, ptr %0, i64 8
  tail call void @_ZN4cvc58internal6EnvObjC2ERNS0_3EnvE(ptr noundef nonnull align 8 dereferenceable(16) %3, ptr noundef nonnull align 8 dereferenceable(696) %1)
  store ptr getelementptr inbounds nuw inrange(-16, 24) (i8, ptr @_ZTVN4cvc58internal28SubtypeElimConverterCallbackE, i64 16), ptr %0, align 8, !tbaa !3
  store ptr getelementptr inbounds nuw inrange(-16, 16) (i8, ptr @_ZTVN4cvc58internal28SubtypeElimConverterCallbackE, i64 56), ptr %3, align 8, !tbaa !3
  %4 = getelementptr inbounds nuw i8, ptr %0, i64 24
  %5 = tail call noundef ptr @_ZNK4cvc58internal6EnvObj11nodeManagerEv(ptr noundef nonnull align 8 dereferenceable(16) %3)
  tail call void @_ZN4cvc58internal24SubtypeElimNodeConverterC1EPNS0_11NodeManagerE(ptr noundef nonnull align 8 dereferenceable(241) %4, ptr noundef %5)
  %6 = getelementptr inbounds nuw i8, ptr %0, i64 16
  %7 = load ptr, ptr %6, align 8, !tbaa !6
  %8 = invoke noundef ptr @_ZN4cvc58internal3Env19getProofNodeManagerEv(ptr noundef nonnull align 8 dereferenceable(696) %7)
          to label %9 unwind label %13

9:                                                ; preds = %2
  %10 = invoke noundef ptr @_ZNK4cvc58internal16ProofNodeManager10getCheckerEv(ptr noundef nonnull align 8 dereferenceable(32) %8)
          to label %11 unwind label %13

11:                                               ; preds = %9
  %12 = getelementptr inbounds nuw i8, ptr %0, i64 272
  store ptr %10, ptr %12, align 8, !tbaa !11
  ret void

13:                                               ; preds = %9, %2
  %14 = landingpad { ptr, i32 }
          cleanup
  tail call void @_ZN4cvc58internal13NodeConverterD2Ev(ptr noundef nonnull align 8 dereferenceable(241) %4) #18
  resume { ptr, i32 } %14
}